; Function Attrs: nounwind memory(readwrite, argmem: read) uwtable
define internal fastcc range(i32 0, 2) i32 @arkode_butcher_order5e(ptr noundef readonly captures(address_is_null) %0, ptr noundef readonly captures(address_is_null) %1, ptr noundef readonly captures(address_is_null) %2, ptr noundef readonly captures(address_is_null) %3, ptr noundef readonly captures(address_is_null) %4, i32 noundef %5) unnamed_addr #10 {
  %7 = sext i32 %5 to i64
  %8 = tail call noalias ptr @calloc(i64 noundef %7, i64 noundef 8) #16
  %9 = tail call noalias ptr @calloc(i64 noundef %7, i64 noundef 8) #16
  %10 = icmp eq ptr %2, null
  %11 = icmp eq ptr %3, null
  %or.cond.i = or i1 %10, %11
  %12 = icmp eq ptr %8, null
  %or.cond3.i = or i1 %or.cond.i, %12
  %13 = icmp slt i32 %5, 1
  %or.cond5.i = or i1 %13, %or.cond3.i
  br i1 %or.cond5.i, label %arkode_butcher_vv.exit, label %.preheader.preheader.i

.preheader.preheader.i:                           ; preds = %6
  %wide.trip.count.i = zext nneg i32 %5 to i64
  br label %.preheader.i

.preheader.i:                                     ; preds = %.preheader.i, %.preheader.preheader.i
  %indvars.iv.i = phi i64 [ 0, %.preheader.preheader.i ], [ %indvars.iv.next.i, %.preheader.i ]
  %14 = getelementptr inbounds nuw double, ptr %2, i64 %indvars.iv.i
  %15 = load double, ptr %14, align 8, !tbaa !18
  %16 = getelementptr inbounds nuw double, ptr %3, i64 %indvars.iv.i
  %17 = load double, ptr %16, align 8, !tbaa !18
  %18 = fmul double %15, %17
  %19 = getelementptr inbounds nuw double, ptr %8, i64 %indvars.iv.i
  store double %18, ptr %19, align 8, !tbaa !18
  %indvars.iv.next.i = add nuw nsw i64 %indvars.iv.i, 1
  %exitcond.not.i = icmp eq i64 %indvars.iv.next.i, %wide.trip.count.i
  br i1 %exitcond.not.i, label %20, label %.preheader.i

arkode_butcher_vv.exit:                           ; preds = %6
  tail call void @free(ptr noundef %8) #17
  tail call void @free(ptr noundef %9) #17
  br label %arkode_butcher_dot.exit

20:                                               ; preds = %.preheader.i
  %21 = icmp eq ptr %4, null
  %22 = icmp eq ptr %9, null
  %or.cond3.i29 = or i1 %21, %22
  br i1 %or.cond3.i29, label %arkode_butcher_vv.exit38, label %.preheader.i33

.preheader.i33:                                   ; preds = %20, %.preheader.i33
  %indvars.iv.i34 = phi i64 [ %indvars.iv.next.i35, %.preheader.i33 ], [ 0, %20 ]
  %23 = getelementptr inbounds nuw double, ptr %4, i64 %indvars.iv.i34
  %24 = load double, ptr %23, align 8, !tbaa !18
  %25 = getelementptr inbounds nuw double, ptr %8, i64 %indvars.iv.i34
  %26 = load double, ptr %25, align 8, !tbaa !18
  %27 = fmul double %24, %26
  %28 = getelementptr inbounds nuw double, ptr %9, i64 %indvars.iv.i34
  store double %27, ptr %28, align 8, !tbaa !18
  %indvars.iv.next.i35 = add nuw nsw i64 %indvars.iv.i34, 1
  %exitcond.not.i36 = icmp eq i64 %indvars.iv.next.i35, %wide.trip.count.i
  br i1 %exitcond.not.i36, label %29, label %.preheader.i33

arkode_butcher_vv.exit38:                         ; preds = %20
  tail call void @free(ptr noundef nonnull %8) #17
  tail call void @free(ptr noundef %9) #17
  br label %arkode_butcher_dot.exit

29:                                               ; preds = %.preheader.i33
  %30 = icmp eq ptr %1, null
  br i1 %30, label %arkode_butcher_mv.exit, label %.preheader.us.preheader.i

.preheader.us.preheader.i:                        ; preds = %29
  %31 = shl nuw nsw i64 %wide.trip.count.i, 3
  tail call void @llvm.memset.p0.i64(ptr nonnull align 8 %8, i8 0, i64 %31, i1 false), !tbaa !18
  br label %.preheader.us.i

.preheader.us.i:                                  ; preds = %._crit_edge.us.i, %.preheader.us.preheader.i
  %indvars.iv40.i = phi i64 [ 0, %.preheader.us.preheader.i ], [ %indvars.iv.next41.i, %._crit_edge.us.i ]
  %32 = getelementptr inbounds nuw ptr, ptr %1, i64 %indvars.iv40.i
  %33 = load ptr, ptr %32, align 8, !tbaa !12
  %34 = getelementptr inbounds nuw double, ptr %8, i64 %indvars.iv40.i
  %.promoted.us.i = load double, ptr %34, align 8, !tbaa !18
  br label %35

35:                                               ; preds = %35, %.preheader.us.i
  %indvars.iv.i42 = phi i64 [ 0, %.preheader.us.i ], [ %indvars.iv.next.i43, %35 ]
  %36 = phi double [ %.promoted.us.i, %.preheader.us.i ], [ %41, %35 ]
  %37 = getelementptr inbounds nuw double, ptr %33, i64 %indvars.iv.i42
  %38 = load double, ptr %37, align 8, !tbaa !18
  %39 = getelementptr inbounds nuw double, ptr %9, i64 %indvars.iv.i42
  %40 = load double, ptr %39, align 8, !tbaa !18
  %41 = tail call double @llvm.fmuladd.f64(double %38, double %40, double %36)
  %indvars.iv.next.i43 = add nuw nsw i64 %indvars.iv.i42, 1
  %exitcond.not.i44 = icmp eq i64 %indvars.iv.next.i43, %wide.trip.count.i
  br i1 %exitcond.not.i44, label %._crit_edge.us.i, label %35

._crit_edge.us.i:                                 ; preds = %35
  store double %41, ptr %34, align 8, !tbaa !18
  %indvars.iv.next41.i = add nuw nsw i64 %indvars.iv40.i, 1
  %exitcond44.not.i = icmp eq i64 %indvars.iv.next41.i, %wide.trip.count.i
  br i1 %exitcond44.not.i, label %42, label %.preheader.us.i

arkode_butcher_mv.exit:                           ; preds = %29
  tail call void @free(ptr noundef nonnull %8) #17
  tail call void @free(ptr noundef nonnull %9) #17
  br label %arkode_butcher_dot.exit

42:                                               ; preds = %._crit_edge.us.i
  %43 = icmp eq ptr %0, null
  br i1 %43, label %arkode_butcher_dot.exit, label %.preheader

.preheader:                                       ; preds = %42, %.preheader
  %indvars.iv.i48 = phi i64 [ %indvars.iv.next.i49, %.preheader ], [ 0, %42 ]
  %44 = phi double [ %49, %.preheader ], [ 0.000000e+00, %42 ]
  %45 = getelementptr inbounds nuw double, ptr %0, i64 %indvars.iv.i48
  %46 = load double, ptr %45, align 8, !tbaa !18
  %47 = getelementptr inbounds nuw double, ptr %8, i64 %indvars.iv.i48
  %48 = load double, ptr %47, align 8, !tbaa !18
  %49 = tail call double @llvm.fmuladd.f64(double %46, double %48, double %44)
  %indvars.iv.next.i49 = add nuw nsw i64 %indvars.iv.i48, 1
  %exitcond.not.i50 = icmp eq i64 %indvars.iv.next.i49, %wide.trip.count.i
  br i1 %exitcond.not.i50, label %50, label %.preheader

50:                                               ; preds = %.preheader
  tail call void @free(ptr noundef nonnull %8) #17
  tail call void @free(ptr noundef %9) #17
  %51 = fadd double %49, -5.000000e-02
  %52 = tail call double @llvm.fabs.f64(double %51)
  %53 = fcmp ule double %52, 0x3E50000000000000
  %54 = zext i1 %53 to i32
  br label %arkode_butcher_dot.exit

arkode_butcher_dot.exit:                          ; preds = %42, %50, %arkode_butcher_mv.exit, %arkode_butcher_vv.exit38, %arkode_butcher_vv.exit
  %.0 = phi i32 [ 0, %arkode_butcher_vv.exit ], [ 0, %arkode_butcher_vv.exit38 ], [ 0, %arkode_butcher_mv.exit ], [ %54, %50 ], [ 0, %42 ]
  ret i32 %.0
}